target datalayout = "e-m:e-p270:32:32-p271:32:32-p272:64:64-i64:64-i128:128-f80:128-n8:16:32:64-S128"
target triple = "x86_64-pc-linux-gnu"

%struct.expert_field = type { i32, i32 }
%struct._e_guid_t = type { i32, i16, i16, [8 x i8] }
%struct._packet_info = type { ptr, ptr, i32, i32, %struct.nstime_t, %struct.nstime_t, %struct.nstime_t, i32, ptr, ptr, ptr, ptr, %struct._address, %struct._address, %struct._address, %struct._address, %struct._address, %struct._address, i32, ptr, i32, %struct.anon, i32, i32, i32, i32, ptr, i32, ptr, ptr, i16, i16, i32, i32, i16, i32, i32, ptr, ptr, ptr, i8, i8, i16, i16, i16, i32, i16, i16, ptr, ptr, ptr, ptr, ptr, i32 }
%struct.nstime_t = type { i64, i32 }
%struct._address = type { i32, i32, ptr, ptr }
%struct.anon = type { i8, [3 x i8] }
%struct.pnio_ar_s = type { %struct._e_guid_t, i16, i16, [6 x i8], i16, [6 x i8], i16, i16 }
%struct._GList = type { ptr, ptr, ptr }

@hf_pn_io_record_data_length = internal global i32 0, align 4
@hf_pn_io_add_val1 = internal global i32 0, align 4
@hf_pn_io_add_val2 = internal global i32 0, align 4
@ei_pn_io_block_version = internal global %struct.expert_field zeroinitializer, align 4
@.str.1317 = private unnamed_addr constant [41 x i8] c"Block version %u.%u not implemented yet!\00", align 1
@.str.1326 = private unnamed_addr constant [11 x i8] c", %u bytes\00", align 1
@pnio_ars = internal global ptr null, align 8
@.str.1616 = private unnamed_addr constant [52 x i8] c", Len:%u, Index:0x%x, Status:0x%x, Val1:%u, Val2:%u\00", align 1

; Function Attrs: nounwind uwtable
define internal ptr @pnio_ar_find_by_aruuid(ptr noundef %0, ptr noundef %1) #0 {
  %3 = alloca ptr, align 8
  %4 = alloca ptr, align 8
  %5 = alloca ptr, align 8
  %6 = alloca ptr, align 8
  %7 = alloca ptr, align 8
  store ptr %0, ptr %4, align 8
  store ptr %1, ptr %5, align 8
  %8 = load ptr, ptr @pnio_ars, align 8
  store ptr %8, ptr %6, align 8
  br label %9

9:                                                ; preds = %32, %2
  %10 = load ptr, ptr %6, align 8
  %11 = icmp ne ptr %10, null
  br i1 %11, label %12, label %34

12:                                               ; preds = %9
  %13 = load ptr, ptr %6, align 8
  %14 = getelementptr inbounds %struct._GList, ptr %13, i32 0, i32 0
  %15 = load ptr, ptr %14, align 8
  store ptr %15, ptr %7, align 8
  %16 = load ptr, ptr %7, align 8
  %17 = getelementptr inbounds %struct.pnio_ar_s, ptr %16, i32 0, i32 0
  %18 = load ptr, ptr %5, align 8
  %19 = call i32 @memcmp(ptr noundef %17, ptr noundef %18, i64 noundef 16) #7
  %20 = icmp eq i32 %19, 0
  br i1 %20, label %21, label %23

21:                                               ; preds = %12
  %22 = load ptr, ptr %7, align 8
  store ptr %22, ptr %3, align 8
  br label %35

23:                                               ; preds = %12
  br label %24

24:                                               ; preds = %23
  %25 = load ptr, ptr %6, align 8
  %26 = icmp ne ptr %25, null
  br i1 %26, label %27, label %31

27:                                               ; preds = %24
  %28 = load ptr, ptr %6, align 8
  %29 = getelementptr inbounds %struct._GList, ptr %28, i32 0, i32 1
  %30 = load ptr, ptr %29, align 8
  br label %32

31:                                               ; preds = %24
  br label %32

32:                                               ; preds = %31, %27
  %33 = phi ptr [ %30, %27 ], [ null, %31 ]
  store ptr %33, ptr %6, align 8
  br label %9, !llvm.loop !88

34:                                               ; preds = %9
  store ptr null, ptr %3, align 8
  br label %35

35:                                               ; preds = %34, %21
  %36 = load ptr, ptr %3, align 8
  ret ptr %36
}

; Function Attrs: nounwind uwtable
define internal i32 @dissect_IODWriteResHeader_block(ptr noundef %0, i32 noundef %1, ptr noundef %2, ptr noundef %3, ptr noundef %4, ptr noundef %5, i8 noundef zeroext %6, i8 noundef zeroext %7, ptr noundef %8, ptr noundef %9, ptr noundef %10) #0 {
  %12 = alloca i32, align 4
  %13 = alloca ptr, align 8
  %14 = alloca i32, align 4
  %15 = alloca ptr, align 8
  %16 = alloca ptr, align 8
  %17 = alloca ptr, align 8
  %18 = alloca ptr, align 8
  %19 = alloca i8, align 1
  %20 = alloca i8, align 1
  %21 = alloca ptr, align 8
  %22 = alloca ptr, align 8
  %23 = alloca ptr, align 8
  %24 = alloca %struct._e_guid_t, align 4
  %25 = alloca i16, align 2
  %26 = alloca i16, align 2
  %27 = alloca i32, align 4
  store ptr %0, ptr %13, align 8
  store i32 %1, ptr %14, align 4
  store ptr %2, ptr %15, align 8
  store ptr %3, ptr %16, align 8
  store ptr %4, ptr %17, align 8
  store ptr %5, ptr %18, align 8
  store i8 %6, ptr %19, align 1
  store i8 %7, ptr %20, align 1
  store ptr %8, ptr %21, align 8
  store ptr %9, ptr %22, align 8
  store ptr %10, ptr %23, align 8
  %28 = load i8, ptr %19, align 1
  %29 = zext i8 %28 to i32
  %30 = icmp ne i32 %29, 1
  br i1 %30, label %35, label %31

31:                                               ; preds = %11
  %32 = load i8, ptr %20, align 1
  %33 = zext i8 %32 to i32
  %34 = icmp ne i32 %33, 0
  br i1 %34, label %35, label %44

35:                                               ; preds = %31, %11
  %36 = load ptr, ptr %15, align 8
  %37 = load ptr, ptr %17, align 8
  %38 = load i8, ptr %19, align 1
  %39 = zext i8 %38 to i32
  %40 = load i8, ptr %20, align 1
  %41 = zext i8 %40 to i32
  %42 = call ptr (ptr, ptr, ptr, ptr, ...) @expert_add_info_format(ptr noundef %36, ptr noundef %37, ptr noundef @ei_pn_io_block_version, ptr noundef @.str.1317, i32 noundef %39, i32 noundef %41)
  %43 = load i32, ptr %14, align 4
  store i32 %43, ptr %12, align 4
  br label %127

44:                                               ; preds = %31
  %45 = load ptr, ptr %13, align 8
  %46 = load i32, ptr %14, align 4
  %47 = load ptr, ptr %15, align 8
  %48 = load ptr, ptr %16, align 8
  %49 = load ptr, ptr %17, align 8
  %50 = load ptr, ptr %18, align 8
  %51 = load ptr, ptr %21, align 8
  %52 = call i32 @dissect_ReadWrite_header(ptr noundef %45, i32 noundef %46, ptr noundef %47, ptr noundef %48, ptr noundef %49, ptr noundef %50, ptr noundef %51, ptr noundef %24)
  store i32 %52, ptr %14, align 4
  %53 = load ptr, ptr %15, align 8
  %54 = call ptr @pnio_ar_find_by_aruuid(ptr noundef %53, ptr noundef %24)
  %55 = load ptr, ptr %23, align 8
  store ptr %54, ptr %55, align 8
  %56 = load ptr, ptr %13, align 8
  %57 = load i32, ptr %14, align 4
  %58 = load ptr, ptr %15, align 8
  %59 = load ptr, ptr %16, align 8
  %60 = load ptr, ptr %18, align 8
  %61 = load i32, ptr @hf_pn_io_record_data_length, align 4
  %62 = load ptr, ptr %22, align 8
  %63 = call i32 @dissect_dcerpc_uint32(ptr noundef %56, i32 noundef %57, ptr noundef %58, ptr noundef %59, ptr noundef %60, i32 noundef %61, ptr noundef %62)
  store i32 %63, ptr %14, align 4
  %64 = load ptr, ptr %13, align 8
  %65 = load i32, ptr %14, align 4
  %66 = load ptr, ptr %15, align 8
  %67 = load ptr, ptr %16, align 8
  %68 = load ptr, ptr %18, align 8
  %69 = load i32, ptr @hf_pn_io_add_val1, align 4
  %70 = call i32 @dissect_dcerpc_uint16(ptr noundef %64, i32 noundef %65, ptr noundef %66, ptr noundef %67, ptr noundef %68, i32 noundef %69, ptr noundef %25)
  store i32 %70, ptr %14, align 4
  %71 = load ptr, ptr %13, align 8
  %72 = load i32, ptr %14, align 4
  %73 = load ptr, ptr %15, align 8
  %74 = load ptr, ptr %16, align 8
  %75 = load ptr, ptr %18, align 8
  %76 = load i32, ptr @hf_pn_io_add_val2, align 4
  %77 = call i32 @dissect_dcerpc_uint16(ptr noundef %71, i32 noundef %72, ptr noundef %73, ptr noundef %74, ptr noundef %75, i32 noundef %76, ptr noundef %26)
  store i32 %77, ptr %14, align 4
  %78 = load ptr, ptr %18, align 8
  %79 = getelementptr i8, ptr %78, i64 0
  %80 = load i8, ptr %79, align 1
  %81 = zext i8 %80 to i32
  %82 = and i32 %81, 16
  %83 = icmp ne i32 %82, 0
  br i1 %83, label %84, label %88

84:                                               ; preds = %44
  %85 = load ptr, ptr %13, align 8
  %86 = load i32, ptr %14, align 4
  %87 = call i32 @tvb_get_letohl(ptr noundef %85, i32 noundef %86)
  br label %92

88:                                               ; preds = %44
  %89 = load ptr, ptr %13, align 8
  %90 = load i32, ptr %14, align 4
  %91 = call i32 @tvb_get_ntohl(ptr noundef %89, i32 noundef %90)
  br label %92

92:                                               ; preds = %88, %84
  %93 = phi i32 [ %87, %84 ], [ %91, %88 ]
  store i32 %93, ptr %27, align 4
  %94 = load ptr, ptr %13, align 8
  %95 = load i32, ptr %14, align 4
  %96 = load ptr, ptr %15, align 8
  %97 = load ptr, ptr %16, align 8
  %98 = load ptr, ptr %18, align 8
  %99 = call i32 @dissect_PNIO_status(ptr noundef %94, i32 noundef %95, ptr noundef %96, ptr noundef %97, ptr noundef %98)
  store i32 %99, ptr %14, align 4
  %100 = load ptr, ptr %13, align 8
  %101 = load i32, ptr %14, align 4
  %102 = load ptr, ptr %15, align 8
  %103 = load ptr, ptr %16, align 8
  %104 = call i32 @dissect_pn_padding(ptr noundef %100, i32 noundef %101, ptr noundef %102, ptr noundef %103, i32 noundef 16)
  store i32 %104, ptr %14, align 4
  %105 = load ptr, ptr %17, align 8
  %106 = load ptr, ptr %22, align 8
  %107 = load i32, ptr %106, align 4
  %108 = load ptr, ptr %21, align 8
  %109 = load i16, ptr %108, align 2
  %110 = zext i16 %109 to i32
  %111 = load i32, ptr %27, align 4
  %112 = load i16, ptr %25, align 2
  %113 = zext i16 %112 to i32
  %114 = load i16, ptr %26, align 2
  %115 = zext i16 %114 to i32
  call void (ptr, ptr, ...) @proto_item_append_text(ptr noundef %105, ptr noundef @.str.1616, i32 noundef %107, i32 noundef %110, i32 noundef %111, i32 noundef %113, i32 noundef %115)
  %116 = load ptr, ptr %22, align 8
  %117 = load i32, ptr %116, align 4
  %118 = icmp ne i32 %117, 0
  br i1 %118, label %119, label %125

119:                                              ; preds = %92
  %120 = load ptr, ptr %15, align 8
  %121 = getelementptr inbounds %struct._packet_info, ptr %120, i32 0, i32 1
  %122 = load ptr, ptr %121, align 8
  %123 = load ptr, ptr %22, align 8
  %124 = load i32, ptr %123, align 4
  call void (ptr, i32, ptr, ...) @col_append_fstr(ptr noundef %122, i32 noundef 25, ptr noundef @.str.1326, i32 noundef %124)
  br label %125

125:                                              ; preds = %119, %92
  %126 = load i32, ptr %14, align 4
  store i32 %126, ptr %12, align 4
  br label %127

127:                                              ; preds = %125, %35
  %128 = load i32, ptr %12, align 4
  ret i32 %128
}