; Function Attrs: nounwind uwtable
define internal fastcc void @dissect_IODWriteResHeader_block(ptr noundef %0, i32 noundef %1, ptr noundef %2, ptr noundef %3, ptr noundef %4, ptr noundef %5, i8 noundef zeroext %6, i8 noundef zeroext %7, ptr noundef nonnull %8, ptr noundef nonnull %9, ptr noundef nonnull writeonly captures(none) %10) unnamed_addr #0 {
  %12 = alloca %struct._e_guid_t, align 4
  %13 = alloca i16, align 2
  %14 = alloca i16, align 2
  %15 = icmp ne i8 %6, 1
  %16 = icmp ne i8 %7, 0
  %or.cond = or i1 %15, %16
  br i1 %or.cond, label %17, label %21

17:                                               ; preds = %11
  %18 = zext i8 %7 to i32
  %19 = zext i8 %6 to i32
  %20 = tail call ptr (ptr, ptr, ptr, ptr, ...) @expert_add_info_format(ptr noundef %2, ptr noundef %4, ptr noundef nonnull @ei_pn_io_block_version, ptr noundef nonnull @.str.1317, i32 noundef %19, i32 noundef %18) #11
  br label %54

21:                                               ; preds = %11
  %22 = call fastcc i32 @dissect_ReadWrite_header(ptr noundef %0, i32 noundef %1, ptr noundef %2, ptr noundef %3, ptr noundef %4, ptr noundef %5, ptr noundef %8, ptr noundef %12)
  %.081.i = load ptr, ptr @pnio_ars, align 8
  %.not2.i = icmp eq ptr %.081.i, null
  br i1 %.not2.i, label %pnio_ar_find_by_aruuid.exit, label %.lr.ph.i

23:                                               ; preds = %.lr.ph.i
  %24 = getelementptr inbounds nuw i8, ptr %.083.i, i64 8
  %.08.i = load ptr, ptr %24, align 8
  %.not.i = icmp eq ptr %.08.i, null
  br i1 %.not.i, label %pnio_ar_find_by_aruuid.exit, label %.lr.ph.i, !llvm.loop !15

.lr.ph.i:                                         ; preds = %21, %23
  %.083.i = phi ptr [ %.08.i, %23 ], [ %.081.i, %21 ]
  %25 = load ptr, ptr %.083.i, align 8
  %bcmp.i = call i32 @bcmp(ptr noundef nonnull dereferenceable(16) %25, ptr noundef nonnull readonly dereferenceable(16) %12, i64 16)
  %26 = icmp eq i32 %bcmp.i, 0
  br i1 %26, label %pnio_ar_find_by_aruuid.exit, label %23

pnio_ar_find_by_aruuid.exit:                      ; preds = %23, %.lr.ph.i, %21
  %.0.i = phi ptr [ null, %21 ], [ %25, %.lr.ph.i ], [ null, %23 ]
  store ptr %.0.i, ptr %10, align 8
  %27 = load i32, ptr @hf_pn_io_record_data_length, align 4
  %28 = call i32 @dissect_dcerpc_uint32(ptr noundef %0, i32 noundef %22, ptr noundef %2, ptr noundef %3, ptr noundef %5, i32 noundef %27, ptr noundef nonnull %9) #11
  %29 = load i32, ptr @hf_pn_io_add_val1, align 4
  %30 = call i32 @dissect_dcerpc_uint16(ptr noundef %0, i32 noundef %28, ptr noundef %2, ptr noundef %3, ptr noundef %5, i32 noundef %29, ptr noundef nonnull %13) #11
  %31 = load i32, ptr @hf_pn_io_add_val2, align 4
  %32 = call i32 @dissect_dcerpc_uint16(ptr noundef %0, i32 noundef %30, ptr noundef %2, ptr noundef %3, ptr noundef %5, i32 noundef %31, ptr noundef nonnull %14) #11
  %33 = load i8, ptr %5, align 1
  %34 = and i8 %33, 16
  %.not = icmp eq i8 %34, 0
  br i1 %.not, label %37, label %35

35:                                               ; preds = %pnio_ar_find_by_aruuid.exit
  %36 = call i32 @tvb_get_letohl(ptr noundef %0, i32 noundef %32) #11
  br label %39

37:                                               ; preds = %pnio_ar_find_by_aruuid.exit
  %38 = call i32 @tvb_get_ntohl(ptr noundef %0, i32 noundef %32) #11
  br label %39

39:                                               ; preds = %37, %35
  %40 = phi i32 [ %36, %35 ], [ %38, %37 ]
  %41 = call i32 @dissect_PNIO_status(ptr noundef %0, i32 noundef %32, ptr noundef %2, ptr noundef %3, ptr noundef nonnull %5) #11
  %42 = call i32 @dissect_pn_padding(ptr noundef %0, i32 noundef %41, ptr noundef %2, ptr noundef %3, i32 noundef 16) #11
  %43 = load i32, ptr %9, align 4
  %44 = load i16, ptr %8, align 2
  %45 = zext i16 %44 to i32
  %46 = load i16, ptr %13, align 2
  %47 = zext i16 %46 to i32
  %48 = load i16, ptr %14, align 2
  %49 = zext i16 %48 to i32
  call void (ptr, ptr, ...) @proto_item_append_text(ptr noundef %4, ptr noundef nonnull @.str.1616, i32 noundef %43, i32 noundef %45, i32 noundef %40, i32 noundef %47, i32 noundef %49) #11
  %50 = load i32, ptr %9, align 4
  %.not57 = icmp eq i32 %50, 0
  br i1 %.not57, label %54, label %51

51:                                               ; preds = %39
  %52 = getelementptr inbounds nuw i8, ptr %2, i64 8
  %53 = load ptr, ptr %52, align 8
  call void (ptr, i32, ptr, ...) @col_append_fstr(ptr noundef %53, i32 noundef 25, ptr noundef nonnull @.str.1326, i32 noundef %50) #11
  br label %54

54:                                               ; preds = %39, %51, %17
  ret void
}